target datalayout = "e-m:e-p270:32:32-p271:32:32-p272:64:64-i64:64-i128:128-f80:128-n8:16:32:64-S128"
target triple = "x86_64-pc-linux-gnu"

@_ZTIN7Iex_3_48InputExcE = external constant ptr
@.str.1 = private unnamed_addr constant [65 x i8] c"Attempt to perform a stateless read on a stream without support.\00", align 1

; Function Attrs: mustprogress uwtable
define noundef i64 @_ZN7Imf_3_47IStream4readEPvmm(ptr noundef nonnull align 8 dereferenceable(40) %0, ptr noundef %1, i64 noundef %2, i64 noundef %3) unnamed_addr #0 align 2 personality ptr @__gxx_personality_v0 {
  %5 = alloca ptr, align 8
  %6 = alloca ptr, align 8
  %7 = alloca i64, align 8
  %8 = alloca i64, align 8
  %9 = alloca ptr, align 8
  %10 = alloca i32, align 4
  store ptr %0, ptr %5, align 8, !tbaa !3
  store ptr %1, ptr %6, align 8, !tbaa !18
  store i64 %2, ptr %7, align 8, !tbaa !19
  store i64 %3, ptr %8, align 8, !tbaa !19
  %11 = call ptr @__cxa_allocate_exception(i64 72) #13
  invoke void @_ZN7Iex_3_48InputExcC1EPKc(ptr noundef nonnull align 8 dereferenceable(72) %11, ptr noundef @.str.1)
          to label %12 unwind label %13

12:                                               ; preds = %4
  call void @__cxa_throw(ptr %11, ptr @_ZTIN7Iex_3_48InputExcE, ptr @_ZN7Iex_3_48InputExcD1Ev) #14
  unreachable

13:                                               ; preds = %4
  %14 = landingpad { ptr, i32 }
          cleanup
  %15 = extractvalue { ptr, i32 } %14, 0
  store ptr %15, ptr %9, align 8
  %16 = extractvalue { ptr, i32 } %14, 1
  store i32 %16, ptr %10, align 4
  call void @__cxa_free_exception(ptr %11) #13
  br label %17

17:                                               ; preds = %13
  %18 = load ptr, ptr %9, align 8
  %19 = load i32, ptr %10, align 4
  %20 = insertvalue { ptr, i32 } poison, ptr %18, 0
  %21 = insertvalue { ptr, i32 } %20, i32 %19, 1
  resume { ptr, i32 } %21
}