; Function Attrs: mustprogress noreturn uwtable
define noundef i64 @_ZN7Imf_3_47IStream4readEPvmm(ptr nonnull readnone align 8 captures(none) %0, ptr readnone captures(none) %1, i64 %2, i64 %3) unnamed_addr #6 align 2 personality ptr @__gxx_personality_v0 {
  %5 = tail call ptr @__cxa_allocate_exception(i64 72) #17
  invoke void @_ZN7Iex_3_48InputExcC1EPKc(ptr noundef nonnull align 8 dereferenceable(72) %5, ptr noundef nonnull @.str.1)
          to label %6 unwind label %7

6:                                                ; preds = %4
  tail call void @__cxa_throw(ptr nonnull %5, ptr nonnull @_ZTIN7Iex_3_48InputExcE, ptr nonnull @_ZN7Iex_3_48InputExcD1Ev) #16
  unreachable

7:                                                ; preds = %4
  %8 = landingpad { ptr, i32 }
          cleanup
  tail call void @__cxa_free_exception(ptr nonnull %5) #17
  resume { ptr, i32 } %8
}